target datalayout = "e-m:e-p270:32:32-p271:32:32-p272:64:64-i64:64-i128:128-f80:128-n8:16:32:64-S128"
target triple = "x86_64-pc-linux-gnu"

@.str.34 = private unnamed_addr constant [65 x i8] c"@ world xmin %g\0A@ world ymin %g\0A@ world xmax %g\0A@ world ymax %g\0A\00", align 1

; Function Attrs: mustprogress uwtable
define noundef zeroext i1 @_Z31output_env_get_print_xvgr_codesPK16gmx_output_env_t(ptr noundef %0) #0 {
  %2 = alloca ptr, align 8
  %3 = alloca i32, align 4
  store ptr %0, ptr %2, align 8
  %4 = load ptr, ptr %2, align 8
  %5 = call noundef i32 @_Z25output_env_get_xvg_formatPK16gmx_output_env_t(ptr noundef %4)
  store i32 %5, ptr %3, align 4
  %6 = load i32, ptr %3, align 4
  %7 = icmp eq i32 %6, 0
  br i1 %7, label %11, label %8

8:                                                ; preds = %1
  %9 = load i32, ptr %3, align 4
  %10 = icmp eq i32 %9, 1
  br label %11

11:                                               ; preds = %8, %1
  %12 = phi i1 [ true, %1 ], [ %10, %8 ]
  ret i1 %12
}

; Function Attrs: mustprogress uwtable
define void @_Z10xvgr_worldP8_IO_FILEffffPK16gmx_output_env_t(ptr noundef %0, float noundef %1, float noundef %2, float noundef %3, float noundef %4, ptr noundef %5) #0 {
  %7 = alloca ptr, align 8
  %8 = alloca float, align 4
  %9 = alloca float, align 4
  %10 = alloca float, align 4
  %11 = alloca float, align 4
  %12 = alloca ptr, align 8
  store ptr %0, ptr %7, align 8
  store float %1, ptr %8, align 4
  store float %2, ptr %9, align 4
  store float %3, ptr %10, align 4
  store float %4, ptr %11, align 4
  store ptr %5, ptr %12, align 8
  %13 = load ptr, ptr %12, align 8
  %14 = call noundef zeroext i1 @_Z31output_env_get_print_xvgr_codesPK16gmx_output_env_t(ptr noundef %13)
  br i1 %14, label %15, label %26

15:                                               ; preds = %6
  %16 = load ptr, ptr %7, align 8
  %17 = load float, ptr %8, align 4
  %18 = fpext float %17 to double
  %19 = load float, ptr %9, align 4
  %20 = fpext float %19 to double
  %21 = load float, ptr %10, align 4
  %22 = fpext float %21 to double
  %23 = load float, ptr %11, align 4
  %24 = fpext float %23 to double
  %25 = call i32 (ptr, ptr, ...) @fprintf(ptr noundef %16, ptr noundef @.str.34, double noundef %18, double noundef %20, double noundef %22, double noundef %24) #13
  br label %26

26:                                               ; preds = %15, %6
  ret void
}