; Function Attrs: mustprogress uwtable
define void @_Z10xvgr_worldP8_IO_FILEffffPK16gmx_output_env_t(ptr nocapture noundef %0, float noundef %1, float noundef %2, float noundef %3, float noundef %4, ptr noundef %5) local_unnamed_addr #0 {
  %7 = tail call noundef i32 @_Z25output_env_get_xvg_formatPK16gmx_output_env_t(ptr noundef %5)
  %8 = icmp ult i32 %7, 2
  br i1 %8, label %9, label %15

9:                                                ; preds = %6
  %10 = fpext float %1 to double
  %11 = fpext float %2 to double
  %12 = fpext float %3 to double
  %13 = fpext float %4 to double
  %14 = tail call i32 (ptr, ptr, ...) @fprintf(ptr noundef %0, ptr noundef nonnull @.str.34, double noundef %10, double noundef %11, double noundef %12, double noundef %13) #20
  br label %15

15:                                               ; preds = %9, %6
  ret void
}